; ModuleID = 'source-C-CXX/0/624.cpp'
source_filename = "source-C-CXX/0/624.cpp"
target datalayout = "e-m:e-p270:32:32-p271:32:32-p272:64:64-i64:64-f80:128-n8:16:32:64-S128"
target triple = "x86_64-pc-linux-gnu"

%"class.std::ios_base::Init" = type { i8 }
%"class.std::basic_istream" = type { i32 (...)**, i64, %"class.std::basic_ios" }
%"class.std::basic_ios" = type { %"class.std::ios_base", %"class.std::basic_ostream"*, i8, i8, %"class.std::basic_streambuf"*, %"class.std::ctype"*, %"class.std::num_put"*, %"class.std::num_get"* }
%"class.std::ios_base" = type { i32 (...)**, i64, i64, i32, i32, i32, %"struct.std::ios_base::_Callback_list"*, %"struct.std::ios_base::_Words", [8 x %"struct.std::ios_base::_Words"], i32, %"struct.std::ios_base::_Words"*, %"class.std::locale" }
%"struct.std::ios_base::_Callback_list" = type { %"struct.std::ios_base::_Callback_list"*, void (i32, %"class.std::ios_base"*, i32)*, i32, i32 }
%"struct.std::ios_base::_Words" = type { i8*, i64 }
%"class.std::locale" = type { %"class.std::locale::_Impl"* }
%"class.std::locale::_Impl" = type { i32, %"class.std::locale::facet"**, i64, %"class.std::locale::facet"**, i8** }
%"class.std::locale::facet" = type <{ i32 (...)**, i32, [4 x i8] }>
%"class.std::basic_ostream" = type { i32 (...)**, %"class.std::basic_ios" }
%"class.std::basic_streambuf" = type { i32 (...)**, i8*, i8*, i8*, i8*, i8*, i8*, %"class.std::locale" }
%"class.std::ctype" = type <{ %"class.std::locale::facet.base", [4 x i8], %struct.__locale_struct*, i8, [7 x i8], i32*, i32*, i16*, i8, [256 x i8], [256 x i8], i8, [6 x i8] }>
%"class.std::locale::facet.base" = type <{ i32 (...)**, i32 }>
%struct.__locale_struct = type { [13 x %struct.__locale_data*], i16*, i32*, i32*, [13 x i8*] }
%struct.__locale_data = type opaque
%"class.std::num_put" = type { %"class.std::locale::facet.base", [4 x i8] }
%"class.std::num_get" = type { %"class.std::locale::facet.base", [4 x i8] }

@_ZStL8__ioinit = internal global %"class.std::ios_base::Init" zeroinitializer, align 1
@__dso_handle = external hidden global i8
@su = dso_local local_unnamed_addr global [40000 x i32] zeroinitializer, align 16
@b = dso_local local_unnamed_addr global [10000 x i32] zeroinitializer, align 16
@ans = dso_local local_unnamed_addr global i32 0, align 4
@_ZSt3cin = external global %"class.std::basic_istream", align 8
@_ZSt4cout = external global %"class.std::basic_ostream", align 8
@llvm.global_ctors = appending global [1 x { i32, void ()*, i8* }] [{ i32, void ()*, i8* } { i32 65535, void ()* @_GLOBAL__sub_I_624.cpp, i8* null }]

declare void @_ZNSt8ios_base4InitC1Ev(%"class.std::ios_base::Init"* nonnull align 1 dereferenceable(1)) unnamed_addr #0

; Function Attrs: nounwind
declare void @_ZNSt8ios_base4InitD1Ev(%"class.std::ios_base::Init"* nonnull align 1 dereferenceable(1)) unnamed_addr #1

; Function Attrs: nofree nounwind
declare i32 @__cxa_atexit(void (i8*)*, i8*, i8*) local_unnamed_addr #2

; Function Attrs: mustprogress nofree nounwind sspstrong uwtable
define dso_local void @_Z9zhaosushuv() local_unnamed_addr #3 {
  br label %1

1:                                                ; preds = %0, %16
  %2 = phi i32 [ 2, %0 ], [ %17, %16 ]
  %3 = sitofp i32 %2 to double
  %4 = tail call double @sqrt(double %3) #11
  %5 = fcmp ult double %4, 2.000000e+00
  br i1 %5, label %15, label %10

6:                                                ; preds = %10
  %7 = sitofp i32 %14 to double
  %8 = tail call double @sqrt(double %3) #11
  %9 = fcmp ult double %8, %7
  br i1 %9, label %15, label %10, !llvm.loop !5

10:                                               ; preds = %1, %6
  %11 = phi i32 [ %14, %6 ], [ 2, %1 ]
  %12 = urem i32 %2, %11
  %13 = icmp eq i32 %12, 0
  %14 = add nuw nsw i32 %11, 1
  br i1 %13, label %16, label %6

15:                                               ; preds = %6, %1
  store i32 1, i32* getelementptr inbounds ([40000 x i32], [40000 x i32]* @su, i64 0, i64 1), align 4, !tbaa !7
  br label %16

16:                                               ; preds = %10, %15
  %17 = add nuw nsw i32 %2, 1
  %18 = icmp eq i32 %17, 32768
  br i1 %18, label %19, label %1, !llvm.loop !11

19:                                               ; preds = %16
  ret void
}

; Function Attrs: argmemonly mustprogress nofree nosync nounwind willreturn
declare void @llvm.lifetime.start.p0i8(i64 immarg, i8* nocapture) #4

; Function Attrs: argmemonly mustprogress nofree nosync nounwind willreturn
declare void @llvm.lifetime.end.p0i8(i64 immarg, i8* nocapture) #4

; Function Attrs: mustprogress nofree nosync nounwind sspstrong uwtable
define dso_local void @_Z7resolveii(i32 %0, i32 %1) local_unnamed_addr #5 {
  %3 = icmp eq i32 %0, 1
  br i1 %3, label %15, label %4

4:                                                ; preds = %2
  %5 = sext i32 %0 to i64
  %6 = getelementptr inbounds [40000 x i32], [40000 x i32]* @su, i64 0, i64 %5
  %7 = load i32, i32* %6, align 4, !tbaa !7
  %8 = icmp eq i32 %7, 1
  %9 = add nsw i32 %1, -1
  %10 = sext i32 %9 to i64
  br i1 %8, label %11, label %18

11:                                               ; preds = %4
  %12 = getelementptr inbounds [10000 x i32], [10000 x i32]* @b, i64 0, i64 %10
  %13 = load i32, i32* %12, align 4, !tbaa !7
  %14 = icmp sgt i32 %13, %0
  br i1 %14, label %18, label %15

15:                                               ; preds = %11, %2
  %16 = load i32, i32* @ans, align 4, !tbaa !7
  %17 = add nsw i32 %16, 1
  store i32 %17, i32* @ans, align 4, !tbaa !7
  br label %36

18:                                               ; preds = %4, %11
  %19 = getelementptr inbounds [10000 x i32], [10000 x i32]* @b, i64 0, i64 %10
  %20 = sext i32 %1 to i64
  %21 = getelementptr inbounds [10000 x i32], [10000 x i32]* @b, i64 0, i64 %20
  %22 = add nsw i32 %1, 1
  %23 = icmp slt i32 %0, 2
  br i1 %23, label %36, label %24

24:                                               ; preds = %18, %33
  %25 = phi i32 [ %34, %33 ], [ 2, %18 ]
  %26 = srem i32 %0, %25
  %27 = sdiv i32 %0, %25
  %28 = icmp eq i32 %26, 0
  br i1 %28, label %29, label %33

29:                                               ; preds = %24
  %30 = load i32, i32* %19, align 4, !tbaa !7
  %31 = icmp slt i32 %25, %30
  br i1 %31, label %33, label %32

32:                                               ; preds = %29
  store i32 %25, i32* %21, align 4, !tbaa !7
  tail call void @_Z7resolveii(i32 %27, i32 %22)
  store i32 0, i32* %21, align 4, !tbaa !7
  br label %33

33:                                               ; preds = %24, %29, %32
  %34 = add nuw i32 %25, 1
  %35 = icmp eq i32 %25, %0
  br i1 %35, label %36, label %24, !llvm.loop !12

36:                                               ; preds = %33, %18, %15
  ret void
}

; Function Attrs: mustprogress norecurse sspstrong uwtable
define dso_local i32 @main() local_unnamed_addr #6 {
  %1 = alloca i32, align 4
  %2 = alloca i32, align 4
  %3 = bitcast i32* %1 to i8*
  call void @llvm.lifetime.start.p0i8(i64 4, i8* nonnull %3) #11
  %4 = bitcast i32* %2 to i8*
  call void @llvm.lifetime.start.p0i8(i64 4, i8* nonnull %4) #11
  tail call void @llvm.memset.p0i8.i64(i8* noundef nonnull align 16 dereferenceable(160000) bitcast ([40000 x i32]* @su to i8*), i8 0, i64 160000, i1 false)
  br label %5

5:                                                ; preds = %20, %0
  %6 = phi i32 [ 2, %0 ], [ %21, %20 ]
  %7 = sitofp i32 %6 to double
  %8 = tail call double @sqrt(double %7) #11
  %9 = fcmp ult double %8, 2.000000e+00
  br i1 %9, label %19, label %14

10:                                               ; preds = %14
  %11 = sitofp i32 %18 to double
  %12 = tail call double @sqrt(double %7) #11
  %13 = fcmp ult double %12, %11
  br i1 %13, label %19, label %14, !llvm.loop !5

14:                                               ; preds = %5, %10
  %15 = phi i32 [ %18, %10 ], [ 2, %5 ]
  %16 = urem i32 %6, %15
  %17 = icmp eq i32 %16, 0
  %18 = add nuw nsw i32 %15, 1
  br i1 %17, label %20, label %10

19:                                               ; preds = %10, %5
  store i32 1, i32* getelementptr inbounds ([40000 x i32], [40000 x i32]* @su, i64 0, i64 1), align 4, !tbaa !7
  br label %20

20:                                               ; preds = %14, %19
  %21 = add nuw nsw i32 %6, 1
  %22 = icmp eq i32 %21, 32768
  br i1 %22, label %23, label %5, !llvm.loop !11

23:                                               ; preds = %20
  %24 = call nonnull align 8 dereferenceable(16) %"class.std::basic_istream"* @_ZNSirsERi(%"class.std::basic_istream"* nonnull align 8 dereferenceable(16) @_ZSt3cin, i32* nonnull align 4 dereferenceable(4) %1)
  %25 = load i32, i32* %1, align 4, !tbaa !7
  %26 = icmp slt i32 %25, 1
  br i1 %26, label %65, label %27

27:                                               ; preds = %23, %58
  %28 = phi i32 [ %62, %58 ], [ 1, %23 ]
  %29 = call nonnull align 8 dereferenceable(16) %"class.std::basic_istream"* @_ZNSirsERi(%"class.std::basic_istream"* nonnull align 8 dereferenceable(16) @_ZSt3cin, i32* nonnull align 4 dereferenceable(4) %2)
  store i32 0, i32* @ans, align 4, !tbaa !7
  call void @llvm.memset.p0i8.i64(i8* noundef nonnull align 16 dereferenceable(40000) bitcast ([10000 x i32]* @b to i8*), i8 0, i64 40000, i1 false)
  %30 = load i32, i32* %2, align 4, !tbaa !7
  call void @_Z7resolveii(i32 %30, i32 1)
  %31 = load i32, i32* @ans, align 4, !tbaa !7
  %32 = call nonnull align 8 dereferenceable(8) %"class.std::basic_ostream"* @_ZNSolsEi(%"class.std::basic_ostream"* nonnull align 8 dereferenceable(8) @_ZSt4cout, i32 %31)
  %33 = bitcast %"class.std::basic_ostream"* %32 to i8**
  %34 = load i8*, i8** %33, align 8, !tbaa !13
  %35 = getelementptr i8, i8* %34, i64 -24
  %36 = bitcast i8* %35 to i64*
  %37 = load i64, i64* %36, align 8
  %38 = bitcast %"class.std::basic_ostream"* %32 to i8*
  %39 = add nsw i64 %37, 240
  %40 = getelementptr inbounds i8, i8* %38, i64 %39
  %41 = bitcast i8* %40 to %"class.std::ctype"**
  %42 = load %"class.std::ctype"*, %"class.std::ctype"** %41, align 8, !tbaa !15
  %43 = icmp eq %"class.std::ctype"* %42, null
  br i1 %43, label %44, label %45

44:                                               ; preds = %27
  call void @_ZSt16__throw_bad_castv() #12
  unreachable

45:                                               ; preds = %27
  %46 = getelementptr inbounds %"class.std::ctype", %"class.std::ctype"* %42, i64 0, i32 8
  %47 = load i8, i8* %46, align 8, !tbaa !19
  %48 = icmp eq i8 %47, 0
  br i1 %48, label %52, label %49

49:                                               ; preds = %45
  %50 = getelementptr inbounds %"class.std::ctype", %"class.std::ctype"* %42, i64 0, i32 9, i64 10
  %51 = load i8, i8* %50, align 1, !tbaa !21
  br label %58

52:                                               ; preds = %45
  call void @_ZNKSt5ctypeIcE13_M_widen_initEv(%"class.std::ctype"* nonnull align 8 dereferenceable(570) %42)
  %53 = bitcast %"class.std::ctype"* %42 to i8 (%"class.std::ctype"*, i8)***
  %54 = load i8 (%"class.std::ctype"*, i8)**, i8 (%"class.std::ctype"*, i8)*** %53, align 8, !tbaa !13
  %55 = getelementptr inbounds i8 (%"class.std::ctype"*, i8)*, i8 (%"class.std::ctype"*, i8)** %54, i64 6
  %56 = load i8 (%"class.std::ctype"*, i8)*, i8 (%"class.std::ctype"*, i8)** %55, align 8
  %57 = call signext i8 %56(%"class.std::ctype"* nonnull align 8 dereferenceable(570) %42, i8 signext 10)
  br label %58

58:                                               ; preds = %49, %52
  %59 = phi i8 [ %51, %49 ], [ %57, %52 ]
  %60 = call nonnull align 8 dereferenceable(8) %"class.std::basic_ostream"* @_ZNSo3putEc(%"class.std::basic_ostream"* nonnull align 8 dereferenceable(8) %32, i8 signext %59)
  %61 = call nonnull align 8 dereferenceable(8) %"class.std::basic_ostream"* @_ZNSo5flushEv(%"class.std::basic_ostream"* nonnull align 8 dereferenceable(8) %60)
  %62 = add nuw nsw i32 %28, 1
  %63 = load i32, i32* %1, align 4, !tbaa !7
  %64 = icmp slt i32 %28, %63
  br i1 %64, label %27, label %65, !llvm.loop !22

65:                                               ; preds = %58, %23
  call void @llvm.lifetime.end.p0i8(i64 4, i8* nonnull %4) #11
  call void @llvm.lifetime.end.p0i8(i64 4, i8* nonnull %3) #11
  ret i32 0
}

; Function Attrs: argmemonly mustprogress nofree nounwind willreturn writeonly
declare void @llvm.memset.p0i8.i64(i8* nocapture writeonly, i8, i64, i1 immarg) #7

declare nonnull align 8 dereferenceable(16) %"class.std::basic_istream"* @_ZNSirsERi(%"class.std::basic_istream"* nonnull align 8 dereferenceable(16), i32* nonnull align 4 dereferenceable(4)) local_unnamed_addr #0

declare nonnull align 8 dereferenceable(8) %"class.std::basic_ostream"* @_ZNSolsEi(%"class.std::basic_ostream"* nonnull align 8 dereferenceable(8), i32) local_unnamed_addr #0

; Function Attrs: mustprogress nofree nounwind willreturn
declare double @sqrt(double) local_unnamed_addr #8

declare nonnull align 8 dereferenceable(8) %"class.std::basic_ostream"* @_ZNSo3putEc(%"class.std::basic_ostream"* nonnull align 8 dereferenceable(8), i8 signext) local_unnamed_addr #0

declare nonnull align 8 dereferenceable(8) %"class.std::basic_ostream"* @_ZNSo5flushEv(%"class.std::basic_ostream"* nonnull align 8 dereferenceable(8)) local_unnamed_addr #0

; Function Attrs: noreturn
declare void @_ZSt16__throw_bad_castv() local_unnamed_addr #9

declare void @_ZNKSt5ctypeIcE13_M_widen_initEv(%"class.std::ctype"* nonnull align 8 dereferenceable(570)) local_unnamed_addr #0

; Function Attrs: sspstrong uwtable
define internal void @_GLOBAL__sub_I_624.cpp() #10 section ".text.startup" {
  tail call void @_ZNSt8ios_base4InitC1Ev(%"class.std::ios_base::Init"* nonnull align 1 dereferenceable(1) @_ZStL8__ioinit)
  %1 = tail call i32 @__cxa_atexit(void (i8*)* bitcast (void (%"class.std::ios_base::Init"*)* @_ZNSt8ios_base4InitD1Ev to void (i8*)*), i8* getelementptr inbounds (%"class.std::ios_base::Init", %"class.std::ios_base::Init"* @_ZStL8__ioinit, i64 0, i32 0), i8* nonnull @__dso_handle) #11
  ret void
}


!llvm.module.flags = !{!0, !1, !2, !3}
!llvm.ident = !{!4}

!0 = !{i32 1, !"wchar_size", i32 4}
!1 = !{i32 7, !"PIC Level", i32 2}
!2 = !{i32 7, !"PIE Level", i32 2}
!3 = !{i32 7, !"uwtable", i32 1}
!4 = !{!"clang version 13.0.0"}
!5 = distinct !{!5, !6}
!6 = !{!"llvm.loop.mustprogress"}
!7 = !{!8, !8, i64 0}
!8 = !{!"int", !9, i64 0}
!9 = !{!"omnipotent char", !10, i64 0}
!10 = !{!"Simple C++ TBAA"}
!11 = distinct !{!11, !6}
!12 = distinct !{!12, !6}
!13 = !{!14, !14, i64 0}
!14 = !{!"vtable pointer", !10, i64 0}
!15 = !{!16, !17, i64 240}
!16 = !{!"_ZTSSt9basic_iosIcSt11char_traitsIcEE", !17, i64 216, !9, i64 224, !18, i64 225, !17, i64 232, !17, i64 240, !17, i64 248, !17, i64 256}
!17 = !{!"any pointer", !9, i64 0}
!18 = !{!"bool", !9, i64 0}
!19 = !{!20, !9, i64 56}
!20 = !{!"_ZTSSt5ctypeIcE", !17, i64 16, !18, i64 24, !17, i64 32, !17, i64 40, !17, i64 48, !9, i64 56, !9, i64 57, !9, i64 313, !9, i64 569}
!21 = !{!9, !9, i64 0}
!22 = distinct !{!22, !6}
